; ModuleID = '11/658.cpp'
source_filename = "11/658.cpp"
target datalayout = "e-m:e-p270:32:32-p271:32:32-p272:64:64-i64:64-f80:128-n8:16:32:64-S128"
target triple = "x86_64-pc-linux-gnu"

%"class.std::ios_base::Init" = type { i8 }
%"class.std::basic_istream" = type { i32 (...)**, i64, %"class.std::basic_ios" }
%"class.std::basic_ios" = type { %"class.std::ios_base", %"class.std::basic_ostream"*, i8, i8, %"class.std::basic_streambuf"*, %"class.std::ctype"*, %"class.std::num_put"*, %"class.std::num_get"* }
%"class.std::ios_base" = type { i32 (...)**, i64, i64, i32, i32, i32, %"struct.std::ios_base::_Callback_list"*, %"struct.std::ios_base::_Words", [8 x %"struct.std::ios_base::_Words"], i32, %"struct.std::ios_base::_Words"*, %"class.std::locale" }
%"struct.std::ios_base::_Callback_list" = type { %"struct.std::ios_base::_Callback_list"*, void (i32, %"class.std::ios_base"*, i32)*, i32, i32 }
%"struct.std::ios_base::_Words" = type { i8*, i64 }
%"class.std::locale" = type { %"class.std::locale::_Impl"* }
%"class.std::locale::_Impl" = type { i32, %"class.std::locale::facet"**, i64, %"class.std::locale::facet"**, i8** }
%"class.std::locale::facet" = type <{ i32 (...)**, i32, [4 x i8] }>
%"class.std::basic_ostream" = type { i32 (...)**, %"class.std::basic_ios" }
%"class.std::basic_streambuf" = type { i32 (...)**, i8*, i8*, i8*, i8*, i8*, i8*, %"class.std::locale" }
%"class.std::ctype" = type <{ %"class.std::locale::facet.base", [4 x i8], %struct.__locale_struct*, i8, [7 x i8], i32*, i32*, i16*, i8, [256 x i8], [256 x i8], i8, [6 x i8] }>
%"class.std::locale::facet.base" = type <{ i32 (...)**, i32 }>
%struct.__locale_struct = type { [13 x %struct.__locale_data*], i16*, i32*, i32*, [13 x i8*] }
%struct.__locale_data = type opaque
%"class.std::num_put" = type { %"class.std::locale::facet.base", [4 x i8] }
%"class.std::num_get" = type { %"class.std::locale::facet.base", [4 x i8] }

@_ZStL8__ioinit = internal global %"class.std::ios_base::Init" zeroinitializer, align 1
@__dso_handle = external hidden global i8
@_ZSt3cin = external dso_local global %"class.std::basic_istream", align 8
@_ZSt4cout = external dso_local global %"class.std::basic_ostream", align 8
@llvm.global_ctors = appending global [1 x { i32, void ()*, i8* }] [{ i32, void ()*, i8* } { i32 65535, void ()* @_GLOBAL__sub_I_658.cpp, i8* null }]

; Function Attrs: noinline uwtable
define internal void @__cxx_global_var_init() #0 section ".text.startup" {
  call void @_ZNSt8ios_base4InitC1Ev(%"class.std::ios_base::Init"* @_ZStL8__ioinit)
  %1 = call i32 @__cxa_atexit(void (i8*)* bitcast (void (%"class.std::ios_base::Init"*)* @_ZNSt8ios_base4InitD1Ev to void (i8*)*), i8* getelementptr inbounds (%"class.std::ios_base::Init", %"class.std::ios_base::Init"* @_ZStL8__ioinit, i32 0, i32 0), i8* @__dso_handle) #3
  ret void
}

declare dso_local void @_ZNSt8ios_base4InitC1Ev(%"class.std::ios_base::Init"*) unnamed_addr #1

; Function Attrs: nounwind
declare dso_local void @_ZNSt8ios_base4InitD1Ev(%"class.std::ios_base::Init"*) unnamed_addr #2

; Function Attrs: nounwind
declare dso_local i32 @__cxa_atexit(void (i8*)*, i8*, i8*) #3

; Function Attrs: noinline norecurse uwtable
define dso_local i32 @main() #4 {
  %1 = alloca i32, align 4
  %2 = alloca i32, align 4
  %3 = alloca i32, align 4
  %4 = alloca i32, align 4
  %5 = alloca i32, align 4
  %6 = alloca i32, align 4
  %7 = alloca i32, align 4
  store i32 0, i32* %1, align 4
  store i32 0, i32* %7, align 4
  %8 = call dereferenceable(280) %"class.std::basic_istream"* @_ZNSirsERi(%"class.std::basic_istream"* @_ZSt3cin, i32* dereferenceable(4) %2)
  %9 = call dereferenceable(280) %"class.std::basic_istream"* @_ZNSirsERi(%"class.std::basic_istream"* %8, i32* dereferenceable(4) %3)
  %10 = call dereferenceable(280) %"class.std::basic_istream"* @_ZNSirsERi(%"class.std::basic_istream"* %9, i32* dereferenceable(4) %4)
  %11 = load i32, i32* %3, align 4
  %12 = icmp eq i32 %11, 1
  br i1 %12, label %16, label %13

13:                                               ; preds = %0
  %14 = load i32, i32* %3, align 4
  %15 = icmp eq i32 %14, 2
  br i1 %15, label %16, label %28

16:                                               ; preds = %13, %0
  %17 = load i32, i32* %3, align 4
  %18 = icmp eq i32 %17, 1
  br i1 %18, label %19, label %21

19:                                               ; preds = %16
  %20 = load i32, i32* %4, align 4
  store i32 %20, i32* %6, align 4
  br label %24

21:                                               ; preds = %16
  %22 = load i32, i32* %4, align 4
  %23 = add nsw i32 31, %22
  store i32 %23, i32* %6, align 4
  br label %24

24:                                               ; preds = %21, %19
  %25 = load i32, i32* %6, align 4
  %26 = call dereferenceable(272) %"class.std::basic_ostream"* @_ZNSolsEi(%"class.std::basic_ostream"* @_ZSt4cout, i32 %25)
  %27 = call dereferenceable(272) %"class.std::basic_ostream"* @_ZNSolsEPFRSoS_E(%"class.std::basic_ostream"* %26, %"class.std::basic_ostream"* (%"class.std::basic_ostream"*)* @_ZSt4endlIcSt11char_traitsIcEERSt13basic_ostreamIT_T0_ES6_)
  br label %80

28:                                               ; preds = %13
  %29 = load i32, i32* %3, align 4
  %30 = sub nsw i32 %29, 1
  %31 = mul nsw i32 %30, 30
  %32 = load i32, i32* %4, align 4
  %33 = add nsw i32 %31, %32
  store i32 %33, i32* %6, align 4
  %34 = load i32, i32* %2, align 4
  %35 = srem i32 %34, 4
  %36 = icmp eq i32 %35, 0
  br i1 %36, label %37, label %41

37:                                               ; preds = %28
  %38 = load i32, i32* %2, align 4
  %39 = srem i32 %38, 100
  %40 = icmp ne i32 %39, 0
  br i1 %40, label %45, label %41

41:                                               ; preds = %37, %28
  %42 = load i32, i32* %2, align 4
  %43 = srem i32 %42, 400
  %44 = icmp eq i32 %43, 0
  br i1 %44, label %45, label %46

45:                                               ; preds = %41, %37
  store i32 1, i32* %7, align 4
  br label %46

46:                                               ; preds = %45, %41
  %47 = load i32, i32* %7, align 4
  %48 = icmp eq i32 %47, 1
  br i1 %48, label %49, label %52

49:                                               ; preds = %46
  %50 = load i32, i32* %6, align 4
  %51 = sub nsw i32 %50, 1
  store i32 %51, i32* %6, align 4
  br label %55

52:                                               ; preds = %46
  %53 = load i32, i32* %6, align 4
  %54 = sub nsw i32 %53, 2
  store i32 %54, i32* %6, align 4
  br label %55

55:                                               ; preds = %52, %49
  %56 = load i32, i32* %3, align 4
  switch i32 %56, label %75 [
    i32 3, label %57
    i32 4, label %60
    i32 5, label %60
    i32 6, label %63
    i32 7, label %63
    i32 8, label %66
    i32 9, label %66
    i32 10, label %69
    i32 11, label %72
    i32 12, label %72
  ]

57:                                               ; preds = %55
  %58 = load i32, i32* %6, align 4
  %59 = add nsw i32 %58, 1
  store i32 %59, i32* %6, align 4
  br label %76

60:                                               ; preds = %55, %55
  %61 = load i32, i32* %6, align 4
  %62 = add nsw i32 %61, 2
  store i32 %62, i32* %6, align 4
  br label %76

63:                                               ; preds = %55, %55
  %64 = load i32, i32* %6, align 4
  %65 = add nsw i32 %64, 3
  store i32 %65, i32* %6, align 4
  br label %76

66:                                               ; preds = %55, %55
  %67 = load i32, i32* %6, align 4
  %68 = add nsw i32 %67, 4
  store i32 %68, i32* %6, align 4
  br label %76

69:                                               ; preds = %55
  %70 = load i32, i32* %6, align 4
  %71 = add nsw i32 %70, 5
  store i32 %71, i32* %6, align 4
  br label %76

72:                                               ; preds = %55, %55
  %73 = load i32, i32* %6, align 4
  %74 = add nsw i32 %73, 6
  store i32 %74, i32* %6, align 4
  br label %76

75:                                               ; preds = %55
  br label %76

76:                                               ; preds = %75, %72, %69, %66, %63, %60, %57
  %77 = load i32, i32* %6, align 4
  %78 = call dereferenceable(272) %"class.std::basic_ostream"* @_ZNSolsEi(%"class.std::basic_ostream"* @_ZSt4cout, i32 %77)
  %79 = call dereferenceable(272) %"class.std::basic_ostream"* @_ZNSolsEPFRSoS_E(%"class.std::basic_ostream"* %78, %"class.std::basic_ostream"* (%"class.std::basic_ostream"*)* @_ZSt4endlIcSt11char_traitsIcEERSt13basic_ostreamIT_T0_ES6_)
  br label %80

80:                                               ; preds = %76, %24
  ret i32 0
}

declare dso_local dereferenceable(280) %"class.std::basic_istream"* @_ZNSirsERi(%"class.std::basic_istream"*, i32* dereferenceable(4)) #1

declare dso_local dereferenceable(272) %"class.std::basic_ostream"* @_ZNSolsEi(%"class.std::basic_ostream"*, i32) #1

declare dso_local dereferenceable(272) %"class.std::basic_ostream"* @_ZNSolsEPFRSoS_E(%"class.std::basic_ostream"*, %"class.std::basic_ostream"* (%"class.std::basic_ostream"*)*) #1

declare dso_local dereferenceable(272) %"class.std::basic_ostream"* @_ZSt4endlIcSt11char_traitsIcEERSt13basic_ostreamIT_T0_ES6_(%"class.std::basic_ostream"* dereferenceable(272)) #1

; Function Attrs: noinline uwtable
define internal void @_GLOBAL__sub_I_658.cpp() #0 section ".text.startup" {
  call void @__cxx_global_var_init()
  ret void
}


!llvm.module.flags = !{!0}
!llvm.ident = !{!1}

!0 = !{i32 1, !"wchar_size", i32 4}
!1 = !{!"clang version 10.0.0-4ubuntu1 "}
